; ModuleID = 'source-C-CXX/2/614.c'
source_filename = "source-C-CXX/2/614.c"
target datalayout = "e-m:e-p270:32:32-p271:32:32-p272:64:64-i64:64-f80:128-n8:16:32:64-S128"
target triple = "x86_64-pc-linux-gnu"

@.str = private unnamed_addr constant [6 x i8] c"%d %d\00", align 1
@.str.1 = private unnamed_addr constant [3 x i8] c"%d\00", align 1
@.str.2 = private unnamed_addr constant [4 x i8] c"yes\00", align 1
@.str.3 = private unnamed_addr constant [3 x i8] c"no\00", align 1

; Function Attrs: nofree nounwind sspstrong uwtable
define dso_local i32 @main() local_unnamed_addr #0 {
  %1 = alloca i32, align 4
  %2 = alloca i32, align 4
  %3 = alloca [1000 x i32], align 16
  %4 = bitcast i32* %1 to i8*
  call void @llvm.lifetime.start.p0i8(i64 4, i8* nonnull %4) #3
  %5 = bitcast i32* %2 to i8*
  call void @llvm.lifetime.start.p0i8(i64 4, i8* nonnull %5) #3
  %6 = call i32 (i8*, ...) @__isoc99_scanf(i8* getelementptr inbounds ([6 x i8], [6 x i8]* @.str, i64 0, i64 0), i32* nonnull %1, i32* nonnull %2)
  %7 = bitcast [1000 x i32]* %3 to i8*
  call void @llvm.lifetime.start.p0i8(i64 4000, i8* nonnull %7) #3
  %8 = load i32, i32* %1, align 4, !tbaa !5
  %9 = icmp sgt i32 %8, 0
  br i1 %9, label %14, label %80

10:                                               ; preds = %14
  %11 = icmp sgt i32 %19, 0
  br i1 %11, label %12, label %80

12:                                               ; preds = %10
  %13 = load i32, i32* %2, align 4
  br label %22

14:                                               ; preds = %0, %14
  %15 = phi i64 [ %18, %14 ], [ 0, %0 ]
  %16 = getelementptr inbounds [1000 x i32], [1000 x i32]* %3, i64 0, i64 %15
  %17 = call i32 (i8*, ...) @__isoc99_scanf(i8* getelementptr inbounds ([3 x i8], [3 x i8]* @.str.1, i64 0, i64 0), i32* nonnull %16)
  %18 = add nuw nsw i64 %15, 1
  %19 = load i32, i32* %1, align 4, !tbaa !5
  %20 = sext i32 %19 to i64
  %21 = icmp slt i64 %18, %20
  br i1 %21, label %14, label %10, !llvm.loop !9

22:                                               ; preds = %12, %58
  %23 = phi i32 [ %13, %12 ], [ %46, %58 ]
  %24 = phi i64 [ 0, %12 ], [ %59, %58 ]
  %25 = phi i32 [ %19, %12 ], [ %61, %58 ]
  %26 = phi i32 [ 0, %12 ], [ %60, %58 ]
  %27 = icmp sgt i32 %25, 0
  br i1 %27, label %28, label %45

28:                                               ; preds = %22
  %29 = getelementptr inbounds [1000 x i32], [1000 x i32]* %3, i64 0, i64 %24
  %30 = load i32, i32* %29, align 4, !tbaa !5
  %31 = zext i32 %25 to i64
  br label %32

32:                                               ; preds = %28, %42
  %33 = phi i64 [ 0, %28 ], [ %43, %42 ]
  %34 = getelementptr inbounds [1000 x i32], [1000 x i32]* %3, i64 0, i64 %33
  %35 = load i32, i32* %34, align 4, !tbaa !5
  %36 = add nsw i32 %35, %30
  %37 = icmp eq i32 %36, %23
  br i1 %37, label %38, label %42

38:                                               ; preds = %32
  %39 = trunc i64 %33 to i32
  %40 = call i32 (i8*, ...) @printf(i8* nonnull dereferenceable(1) getelementptr inbounds ([4 x i8], [4 x i8]* @.str.2, i64 0, i64 0))
  %41 = load i32, i32* %2, align 4, !tbaa !5
  br label %45

42:                                               ; preds = %32
  %43 = add nuw nsw i64 %33, 1
  %44 = icmp eq i64 %43, %31
  br i1 %44, label %45, label %32, !llvm.loop !11

45:                                               ; preds = %42, %22, %38
  %46 = phi i32 [ %41, %38 ], [ %23, %22 ], [ %23, %42 ]
  %47 = phi i32 [ %39, %38 ], [ 0, %22 ], [ %25, %42 ]
  %48 = getelementptr inbounds [1000 x i32], [1000 x i32]* %3, i64 0, i64 %24
  %49 = load i32, i32* %48, align 4, !tbaa !5
  %50 = zext i32 %47 to i64
  %51 = getelementptr inbounds [1000 x i32], [1000 x i32]* %3, i64 0, i64 %50
  %52 = load i32, i32* %51, align 4, !tbaa !5
  %53 = add nsw i32 %52, %49
  %54 = icmp eq i32 %53, %46
  br i1 %54, label %55, label %58

55:                                               ; preds = %45
  %56 = trunc i64 %24 to i32
  %57 = load i32, i32* %1, align 4, !tbaa !5
  br label %64

58:                                               ; preds = %45
  %59 = add nuw nsw i64 %24, 1
  %60 = add nuw nsw i32 %26, 1
  %61 = load i32, i32* %1, align 4, !tbaa !5
  %62 = sext i32 %61 to i64
  %63 = icmp slt i64 %59, %62
  br i1 %63, label %22, label %64, !llvm.loop !12

64:                                               ; preds = %58, %55
  %65 = phi i32 [ %57, %55 ], [ %61, %58 ]
  %66 = phi i32 [ %56, %55 ], [ %60, %58 ]
  %67 = icmp eq i32 %66, %65
  %68 = icmp eq i32 %47, %65
  %69 = select i1 %67, i1 %68, i1 false
  br i1 %69, label %70, label %80

70:                                               ; preds = %64
  %71 = add nsw i32 %65, -1
  %72 = sext i32 %71 to i64
  %73 = getelementptr inbounds [1000 x i32], [1000 x i32]* %3, i64 0, i64 %72
  %74 = load i32, i32* %73, align 4, !tbaa !5
  %75 = shl nsw i32 %74, 1
  %76 = load i32, i32* %2, align 4, !tbaa !5
  %77 = icmp eq i32 %75, %76
  br i1 %77, label %80, label %78

78:                                               ; preds = %70
  %79 = call i32 (i8*, ...) @printf(i8* nonnull dereferenceable(1) getelementptr inbounds ([3 x i8], [3 x i8]* @.str.3, i64 0, i64 0))
  br label %80

80:                                               ; preds = %0, %10, %78, %70, %64
  call void @llvm.lifetime.end.p0i8(i64 4000, i8* nonnull %7) #3
  call void @llvm.lifetime.end.p0i8(i64 4, i8* nonnull %5) #3
  call void @llvm.lifetime.end.p0i8(i64 4, i8* nonnull %4) #3
  ret i32 0
}

; Function Attrs: argmemonly mustprogress nofree nosync nounwind willreturn
declare void @llvm.lifetime.start.p0i8(i64 immarg, i8* nocapture) #1

; Function Attrs: nofree nounwind
declare noundef i32 @__isoc99_scanf(i8* nocapture noundef readonly, ...) local_unnamed_addr #2

; Function Attrs: nofree nounwind
declare noundef i32 @printf(i8* nocapture noundef readonly, ...) local_unnamed_addr #2

; Function Attrs: argmemonly mustprogress nofree nosync nounwind willreturn
declare void @llvm.lifetime.end.p0i8(i64 immarg, i8* nocapture) #1


!llvm.module.flags = !{!0, !1, !2, !3}
!llvm.ident = !{!4}

!0 = !{i32 1, !"wchar_size", i32 4}
!1 = !{i32 7, !"PIC Level", i32 2}
!2 = !{i32 7, !"PIE Level", i32 2}
!3 = !{i32 7, !"uwtable", i32 1}
!4 = !{!"clang version 13.0.0"}
!5 = !{!6, !6, i64 0}
!6 = !{!"int", !7, i64 0}
!7 = !{!"omnipotent char", !8, i64 0}
!8 = !{!"Simple C/C++ TBAA"}
!9 = distinct !{!9, !10}
!10 = !{!"llvm.loop.mustprogress"}
!11 = distinct !{!11, !10}
!12 = distinct !{!12, !10}
